; Function Attrs: mustprogress nofree norecurse nosync nounwind willreturn memory(argmem: read) uwtable
define dso_local { i64, ptr } @_ZNK4absl8ByLength4FindESt17basic_string_viewIcSt11char_traitsIcEEm(ptr noundef nonnull readonly align 8 captures(none) dereferenceable(8) %0, i64 %1, ptr %2, i64 noundef %3) local_unnamed_addr #3 align 2 {
_ZNKSt17basic_string_viewIcSt11char_traitsIcEE6substrEmm.exit:
  %.sroa.speculated = tail call i64 @llvm.umin.i64(i64 %1, i64 %3)
  %4 = sub nuw i64 %1, %.sroa.speculated
  %5 = getelementptr inbounds nuw i8, ptr %2, i64 %.sroa.speculated
  %6 = load i64, ptr %0, align 8, !tbaa !21
  %.not = icmp ugt i64 %4, %6
  %7 = getelementptr inbounds i8, ptr %5, i64 %6
  %8 = getelementptr inbounds nuw i8, ptr %2, i64 %1
  %.sroa.3.0 = select i1 %.not, ptr %7, ptr %8
  %.fca.1.insert = insertvalue { i64, ptr } { i64 0, ptr poison }, ptr %.sroa.3.0, 1
  ret { i64, ptr } %.fca.1.insert
}